; Function Attrs: nounwind uwtable
define ptr @l_Lean_NameSet_insert(ptr noundef %0, ptr noundef %1) local_unnamed_addr #2 {
  %3 = tail call zeroext i8 @l_Lean_RBNode_isRed___rarg(ptr noundef %0) #6
  %4 = icmp eq i8 %3, 0
  %5 = tail call ptr @l_Lean_RBNode_ins___at_Lean_NameSet_insert___spec__2(ptr noundef %0, ptr noundef %1, ptr noundef nonnull inttoptr (i64 1 to ptr))
  br i1 %4, label %l_Lean_RBNode_insert___at_Lean_NameSet_insert___spec__1.exit, label %6

6:                                                ; preds = %2
  %7 = tail call ptr @l_Lean_RBNode_setBlack___rarg(ptr noundef %5) #6
  br label %l_Lean_RBNode_insert___at_Lean_NameSet_insert___spec__1.exit

l_Lean_RBNode_insert___at_Lean_NameSet_insert___spec__1.exit: ; preds = %2, %6
  %.0.i = phi ptr [ %7, %6 ], [ %5, %2 ]
  ret ptr %.0.i
}